target datalayout = "e-m:e-p270:32:32-p271:32:32-p272:64:64-i64:64-i128:128-f80:128-n8:16:32:64-S128"
target triple = "x86_64-pc-linux-gnu"

%class.SafepointStateTracker = type <{ i64, i8, [7 x i8] }>

@_ZN20SafepointSynchronize6_stateE = hidden global i32 0, align 4
@_ZN20SafepointSynchronize13_safepoint_idE = hidden global i64 0, align 8

; Function Attrs: mustprogress nounwind uwtable
define linkonce_odr hidden noundef zeroext i1 @_ZN20SafepointSynchronize15is_at_safepointEv() #1 comdat align 2 {
  %1 = load volatile i32, ptr @_ZN20SafepointSynchronize6_stateE, align 4
  %2 = icmp eq i32 %1, 2
  ret i1 %2
}

; Function Attrs: mustprogress nounwind uwtable
define linkonce_odr hidden noundef i64 @_ZN20SafepointSynchronize12safepoint_idEv() #1 comdat align 2 {
  %1 = load i64, ptr @_ZN20SafepointSynchronize13_safepoint_idE, align 8
  ret i64 %1
}

; Function Attrs: mustprogress nounwind uwtable
define hidden noundef zeroext i1 @_ZN21SafepointStateTracker23safepoint_state_changedEv(ptr noundef nonnull align 8 dereferenceable(9) %0) #1 align 2 {
  %2 = alloca ptr, align 8
  store ptr %0, ptr %2, align 8
  %3 = load ptr, ptr %2, align 8
  %4 = getelementptr inbounds %class.SafepointStateTracker, ptr %3, i32 0, i32 0
  %5 = load i64, ptr %4, align 8
  %6 = call noundef i64 @_ZN20SafepointSynchronize12safepoint_idEv()
  %7 = icmp ne i64 %5, %6
  br i1 %7, label %16, label %8

8:                                                ; preds = %1
  %9 = getelementptr inbounds %class.SafepointStateTracker, ptr %3, i32 0, i32 1
  %10 = load i8, ptr %9, align 8
  %11 = trunc i8 %10 to i1
  %12 = zext i1 %11 to i32
  %13 = call noundef zeroext i1 @_ZN20SafepointSynchronize15is_at_safepointEv()
  %14 = zext i1 %13 to i32
  %15 = icmp ne i32 %12, %14
  br label %16

16:                                               ; preds = %8, %1
  %17 = phi i1 [ true, %1 ], [ %15, %8 ]
  ret i1 %17
}