; Function Attrs: mustprogress nofree norecurse nounwind willreturn memory(readwrite, argmem: read) uwtable
define hidden noundef zeroext i1 @_ZN21SafepointStateTracker23safepoint_state_changedEv(ptr nocapture noundef nonnull readonly align 8 dereferenceable(9) %0) local_unnamed_addr #1 align 2 {
  %2 = load i64, ptr %0, align 8
  %3 = load i64, ptr @_ZN20SafepointSynchronize13_safepoint_idE, align 8
  %.not = icmp eq i64 %2, %3
  br i1 %.not, label %4, label %11

4:                                                ; preds = %1
  %5 = getelementptr inbounds i8, ptr %0, i64 8
  %6 = load i8, ptr %5, align 8
  %7 = load volatile i32, ptr @_ZN20SafepointSynchronize6_stateE, align 4
  %8 = icmp eq i32 %7, 2
  %9 = trunc i8 %6 to i1
  %10 = xor i1 %8, %9
  br label %11

11:                                               ; preds = %4, %1
  %12 = phi i1 [ true, %1 ], [ %10, %4 ]
  ret i1 %12
}